; Function Attrs: nounwind uwtable
define internal i32 @dissect_h248_T_auditCapReply(i1 noundef zeroext %0, ptr noundef %1, i32 noundef %2, ptr noundef %3, ptr noundef %4, i32 noundef %5) #0 {
  %7 = load ptr, ptr getelementptr inbounds nuw (i8, ptr @curr_info, i64 16), align 8
  %8 = load ptr, ptr getelementptr inbounds nuw (i8, ptr @curr_info, i64 8), align 8
  %9 = load ptr, ptr @curr_info, align 8
  %10 = getelementptr inbounds nuw i8, ptr %3, i64 16
  %11 = load ptr, ptr %10, align 8
  %12 = load i32, ptr @keep_persistent_data, align 4
  %13 = tail call ptr @gcp_cmd(ptr noundef %7, ptr noundef %8, ptr noundef %9, i32 noundef 16, i32 noundef %2, ptr noundef %11, i32 noundef %12)
  store ptr %13, ptr getelementptr inbounds nuw (i8, ptr @curr_info, i64 32), align 8
  %14 = load i32, ptr @keep_persistent_data, align 4
  %15 = icmp ne i32 %14, 0
  %16 = icmp ne ptr %13, null
  %or.cond = select i1 %15, i1 %16, i1 false
  br i1 %or.cond, label %17, label %20

17:                                               ; preds = %6
  %18 = load i32, ptr @h248_tap, align 4
  %19 = load ptr, ptr %10, align 8
  tail call void @tap_queue_packet(i32 noundef %18, ptr noundef %19, ptr noundef nonnull %13) #7
  br label %20

20:                                               ; preds = %6, %17
  %21 = load i32, ptr @h248_version, align 4
  %22 = icmp ugt i32 %21, 1
  br i1 %22, label %23, label %26

23:                                               ; preds = %20
  %24 = load i32, ptr @ett_h248_AuditReply, align 4
  %25 = tail call i32 @dissect_ber_choice(ptr noundef nonnull %3, ptr noundef %4, ptr noundef %1, i32 noundef %2, ptr noundef nonnull @AuditReply_choice, i32 noundef %5, i32 noundef %24, ptr noundef null) #7
  br label %30

26:                                               ; preds = %20
  %27 = load i32, ptr @hf_h248_auditValueReplyV1, align 4
  %28 = load i32, ptr @ett_h248_AuditReplyV1, align 4
  %29 = tail call i32 @dissect_ber_sequence(i1 noundef zeroext %0, ptr noundef nonnull %3, ptr noundef %4, ptr noundef %1, i32 noundef %2, ptr noundef nonnull @AuditReplyV1_sequence, i32 noundef %27, i32 noundef %28) #7
  br label %30

30:                                               ; preds = %26, %23
  %.0 = phi i32 [ %25, %23 ], [ %29, %26 ]
  ret i32 %.0
}